target datalayout = "e-m:e-p270:32:32-p271:32:32-p272:64:64-i64:64-i128:128-f80:128-n8:16:32:64-S128"
target triple = "x86_64-pc-linux-gnu"

%"class.std::locale" = type { ptr }

@.str.25 = private unnamed_addr constant [2 x i8] c"C\00", align 1

; Function Attrs: mustprogress uwtable
define void @_ZN6casadi16normalized_setupERSi(ptr noundef nonnull align 8 dereferenceable(16) %0) #4 personality ptr @__gxx_personality_v0 {
  %2 = alloca ptr, align 8
  %3 = alloca %"class.std::locale", align 8
  %4 = alloca %"class.std::locale", align 8
  %5 = alloca ptr, align 8
  %6 = alloca i32, align 4
  store ptr %0, ptr %2, align 8, !tbaa !142
  %7 = load ptr, ptr %2, align 8, !tbaa !142
  %8 = load ptr, ptr %7, align 8, !tbaa !24
  %9 = getelementptr i8, ptr %8, i64 -24
  %10 = load i64, ptr %9, align 8
  %11 = getelementptr inbounds i8, ptr %7, i64 %10
  call void @llvm.lifetime.start.p0(i64 8, ptr %4) #3
  call void @_ZNSt6localeC1EPKc(ptr noundef nonnull align 8 dereferenceable(8) %4, ptr noundef @.str.25)
  invoke void @_ZNSt9basic_iosIcSt11char_traitsIcEE5imbueERKSt6locale(ptr dead_on_unwind writable sret(%"class.std::locale") align 8 %3, ptr noundef nonnull align 8 dereferenceable(264) %11, ptr noundef nonnull align 8 dereferenceable(8) %4)
          to label %12 unwind label %13

12:                                               ; preds = %1
  call void @_ZNSt6localeD1Ev(ptr noundef nonnull align 8 dereferenceable(8) %3) #3
  call void @_ZNSt6localeD1Ev(ptr noundef nonnull align 8 dereferenceable(8) %4) #3
  call void @llvm.lifetime.end.p0(i64 8, ptr %4) #3
  ret void

13:                                               ; preds = %1
  %14 = landingpad { ptr, i32 }
          cleanup
  %15 = extractvalue { ptr, i32 } %14, 0
  store ptr %15, ptr %5, align 8
  %16 = extractvalue { ptr, i32 } %14, 1
  store i32 %16, ptr %6, align 4
  call void @_ZNSt6localeD1Ev(ptr noundef nonnull align 8 dereferenceable(8) %4) #3
  call void @llvm.lifetime.end.p0(i64 8, ptr %4) #3
  br label %17

17:                                               ; preds = %13
  %18 = load ptr, ptr %5, align 8
  %19 = load i32, ptr %6, align 4
  %20 = insertvalue { ptr, i32 } poison, ptr %18, 0
  %21 = insertvalue { ptr, i32 } %20, i32 %19, 1
  resume { ptr, i32 } %21
}